ccopy_reg
_reconstructor
p0
(cgoogle.oauth2.credentials
Credentials
p1
c__builtin__
object
p2
Ntp3
Rp4
(dp5
S'_quota_project_id'
p6
NsS'_token_uri'
p7
Vhttps://oauth2.googleapis.com/token
p8
sS'_client_secret'
p9
VuJVXSu1U5i69fdY-R06DGFxn
p10
sS'_default_scopes'
p11
NsS'expiry'
p12
cdatetime
datetime
p13
(S'\x07\xe5\x07\x1e\x08\x1d*\x06L\xc0'
p14
tp15
Rp16
sS'token'
p17
Vya29.a0ARrdaM-BwmenWLJ6rdSg1ApGcDSIscjzCZ4X854EPHtXVmb9cfUHYVQSqVFzbCDiFW48xJE2_1qqswBxHdpR6E18feJ-Uh2h9TICxhceN-mZ1CNnKlkm8ewwm4MSezbX3NkPNARSrDpj7yXI8V4g_wmxFfVG
p18
sS'_refresh_token'
p19
V1//0g9Q7i19mlEXrCgYIARAAGBASNwF-L9IrEePBvHPDduPqgod25V9QUlwUsyrHHkdokG-FtRF0mANJ0KLvGpHVUEF4C_hd0OK9fUo
p20
sS'_scopes'
p21
(lp22
S'https://www.googleapis.com/auth/drive'
p23
asS'_client_id'
p24
V262700177251-62tjpt1i5trv1l66cedsuebuun8kkvt3.apps.googleusercontent.com
p25
sS'_id_token'
p26
NsS'_rapt_token'
p27
Nsb.
